target datalayout = "e-m:e-p270:32:32-p271:32:32-p272:64:64-i64:64-i128:128-f80:128-n8:16:32:64-S128"
target triple = "x86_64-pc-linux-gnu"

%"class.duckdb::Value" = type { %"struct.duckdb::LogicalType", i8, %"union.duckdb::Value::Val", %"class.duckdb::shared_ptr.72" }
%"struct.duckdb::LogicalType" = type { i8, i8, %"class.duckdb::shared_ptr" }
%"class.duckdb::shared_ptr" = type { %"class.std::shared_ptr" }
%"class.std::shared_ptr" = type { %"class.std::__shared_ptr" }
%"class.std::__shared_ptr" = type { ptr, %"class.std::__shared_count" }
%"class.std::__shared_count" = type { ptr }
%"union.duckdb::Value::Val" = type { %"struct.duckdb::hugeint_t" }
%"struct.duckdb::hugeint_t" = type { i64, i64 }
%"class.duckdb::shared_ptr.72" = type { %"class.std::shared_ptr.73" }
%"class.std::shared_ptr.73" = type { %"class.std::__shared_ptr.74" }
%"class.std::__shared_ptr.74" = type { ptr, %"class.std::__shared_count" }
%"struct.duckdb::SettingLookupResult" = type { i8 }

; Function Attrs: mustprogress nounwind uwtable
define linkonce_odr noundef zeroext i1 @_ZN6duckdb19SettingLookupResultcvbEv(ptr noundef nonnull align 1 dereferenceable(1) %0) #6 comdat align 2 {
  %2 = alloca ptr, align 8
  store ptr %0, ptr %2, align 8, !tbaa !160
  %3 = load ptr, ptr %2, align 8
  %4 = getelementptr inbounds nuw %"struct.duckdb::SettingLookupResult", ptr %3, i32 0, i32 0
  %5 = load i8, ptr %4, align 1, !tbaa !164
  %6 = icmp ne i8 %5, 3
  ret i1 %6
}

; Function Attrs: mustprogress uwtable
define void @_ZN6duckdb20KeyValueSecretReader21GetSecretKeyOrSettingERKNSt7__cxx1112basic_stringIcSt11char_traitsIcESaIcEEES8_(ptr dead_on_unwind noalias writable sret(%"class.duckdb::Value") align 8 %0, ptr noundef nonnull align 8 dereferenceable(72) %1, ptr noundef nonnull align 8 dereferenceable(32) %2, ptr noundef nonnull align 8 dereferenceable(32) %3) #4 align 2 personality ptr @__gxx_personality_v0 {
  %5 = alloca ptr, align 8
  %6 = alloca ptr, align 8
  %7 = alloca ptr, align 8
  %8 = alloca ptr, align 8
  %9 = alloca i1, align 1
  %10 = alloca %"struct.duckdb::LogicalType", align 8
  %11 = alloca ptr, align 8
  %12 = alloca i32, align 4
  %13 = alloca %"struct.duckdb::SettingLookupResult", align 1
  store ptr %0, ptr %5, align 8
  store ptr %1, ptr %6, align 8, !tbaa !102
  store ptr %2, ptr %7, align 8, !tbaa !8
  store ptr %3, ptr %8, align 8, !tbaa !8
  %14 = load ptr, ptr %6, align 8
  store i1 false, ptr %9, align 1
  call void @_ZN6duckdb11LogicalTypeC1ENS_13LogicalTypeIdE(ptr noundef nonnull align 8 dereferenceable(24) %10, i8 noundef zeroext 1)
  invoke void @_ZN6duckdb5ValueC1ENS_11LogicalTypeE(ptr noundef nonnull align 8 dereferenceable(64) %0, ptr noundef %10)
          to label %15 unwind label %25

15:                                               ; preds = %4
  call void @_ZN6duckdb11LogicalTypeD1Ev(ptr noundef nonnull align 8 dereferenceable(24) %10) #3
  call void @llvm.lifetime.start.p0(i64 1, ptr %13) #3
  %16 = load ptr, ptr %7, align 8, !tbaa !8
  %17 = load ptr, ptr %8, align 8, !tbaa !8
  %18 = invoke i8 @_ZN6duckdb20KeyValueSecretReader24TryGetSecretKeyOrSettingERKNSt7__cxx1112basic_stringIcSt11char_traitsIcESaIcEEES8_RNS_5ValueE(ptr noundef nonnull align 8 dereferenceable(72) %14, ptr noundef nonnull align 8 dereferenceable(32) %16, ptr noundef nonnull align 8 dereferenceable(32) %17, ptr noundef nonnull align 8 dereferenceable(64) %0)
          to label %19 unwind label %29

19:                                               ; preds = %15
  %20 = getelementptr inbounds nuw %"struct.duckdb::SettingLookupResult", ptr %13, i32 0, i32 0
  store i8 %18, ptr %20, align 1
  %21 = invoke noundef zeroext i1 @_ZN6duckdb19SettingLookupResultcvbEv(ptr noundef nonnull align 1 dereferenceable(1) %13)
          to label %22 unwind label %29

22:                                               ; preds = %19
  call void @llvm.lifetime.end.p0(i64 1, ptr %13) #3
  br i1 %21, label %23, label %33

23:                                               ; preds = %22
  store i1 true, ptr %9, align 1
  %24 = load i1, ptr %9, align 1
  br i1 %24, label %42, label %41

25:                                               ; preds = %4
  %26 = landingpad { ptr, i32 }
          cleanup
  %27 = extractvalue { ptr, i32 } %26, 0
  store ptr %27, ptr %11, align 8
  %28 = extractvalue { ptr, i32 } %26, 1
  store i32 %28, ptr %12, align 4
  call void @_ZN6duckdb11LogicalTypeD1Ev(ptr noundef nonnull align 8 dereferenceable(24) %10) #3
  br label %44

29:                                               ; preds = %19, %15
  %30 = landingpad { ptr, i32 }
          cleanup
  %31 = extractvalue { ptr, i32 } %30, 0
  store ptr %31, ptr %11, align 8
  %32 = extractvalue { ptr, i32 } %30, 1
  store i32 %32, ptr %12, align 4
  call void @llvm.lifetime.end.p0(i64 1, ptr %13) #3
  br label %43

33:                                               ; preds = %22
  %34 = load ptr, ptr %7, align 8, !tbaa !8
  %35 = load ptr, ptr %8, align 8, !tbaa !8
  invoke void @_ZN6duckdb20KeyValueSecretReader18ThrowNotFoundErrorERKNSt7__cxx1112basic_stringIcSt11char_traitsIcESaIcEEES8_(ptr noundef nonnull align 8 dereferenceable(72) %14, ptr noundef nonnull align 8 dereferenceable(32) %34, ptr noundef nonnull align 8 dereferenceable(32) %35) #26
          to label %36 unwind label %37

36:                                               ; preds = %33
  unreachable

37:                                               ; preds = %33
  %38 = landingpad { ptr, i32 }
          cleanup
  %39 = extractvalue { ptr, i32 } %38, 0
  store ptr %39, ptr %11, align 8
  %40 = extractvalue { ptr, i32 } %38, 1
  store i32 %40, ptr %12, align 4
  br label %43

41:                                               ; preds = %23
  call void @_ZN6duckdb5ValueD1Ev(ptr noundef nonnull align 8 dereferenceable(64) %0) #3
  br label %42

42:                                               ; preds = %41, %23
  ret void

43:                                               ; preds = %37, %29
  call void @_ZN6duckdb5ValueD1Ev(ptr noundef nonnull align 8 dereferenceable(64) %0) #3
  br label %44

44:                                               ; preds = %43, %25
  %45 = load ptr, ptr %11, align 8
  %46 = load i32, ptr %12, align 4
  %47 = insertvalue { ptr, i32 } poison, ptr %45, 0
  %48 = insertvalue { ptr, i32 } %47, i32 %46, 1
  resume { ptr, i32 } %48
}