; Function Attrs: mustprogress uwtable
define void @_ZN6duckdb20KeyValueSecretReader21GetSecretKeyOrSettingERKNSt7__cxx1112basic_stringIcSt11char_traitsIcESaIcEEES8_(ptr dead_on_unwind noalias writable sret(%"class.duckdb::Value") align 8 %0, ptr noundef nonnull align 8 dereferenceable(72) %1, ptr noundef nonnull align 8 dereferenceable(32) %2, ptr noundef nonnull align 8 dereferenceable(32) %3) local_unnamed_addr #3 align 2 personality ptr @__gxx_personality_v0 {
  %5 = alloca %"struct.duckdb::LogicalType", align 8
  call void @_ZN6duckdb11LogicalTypeC1ENS_13LogicalTypeIdE(ptr noundef nonnull align 8 dereferenceable(24) %5, i8 noundef zeroext 1)
  invoke void @_ZN6duckdb5ValueC1ENS_11LogicalTypeE(ptr noundef nonnull align 8 dereferenceable(64) %0, ptr noundef nonnull %5)
          to label %6 unwind label %9

6:                                                ; preds = %4
  call void @_ZN6duckdb11LogicalTypeD1Ev(ptr noundef nonnull align 8 dereferenceable(24) %5) #33
  %7 = invoke i8 @_ZN6duckdb20KeyValueSecretReader24TryGetSecretKeyOrSettingERKNSt7__cxx1112basic_stringIcSt11char_traitsIcESaIcEEES8_RNS_5ValueE(ptr noundef nonnull align 8 dereferenceable(72) %1, ptr noundef nonnull align 8 dereferenceable(32) %2, ptr noundef nonnull align 8 dereferenceable(32) %3, ptr noundef nonnull align 8 dereferenceable(64) %0)
          to label %8 unwind label %11

8:                                                ; preds = %6
  %.not = icmp eq i8 %7, 3
  br i1 %.not, label %13, label %17

9:                                                ; preds = %4
  %10 = landingpad { ptr, i32 }
          cleanup
  call void @_ZN6duckdb11LogicalTypeD1Ev(ptr noundef nonnull align 8 dereferenceable(24) %5) #33
  br label %19

11:                                               ; preds = %6
  %12 = landingpad { ptr, i32 }
          cleanup
  br label %18

13:                                               ; preds = %8
  invoke void @_ZN6duckdb20KeyValueSecretReader18ThrowNotFoundErrorERKNSt7__cxx1112basic_stringIcSt11char_traitsIcESaIcEEES8_(ptr noundef nonnull align 8 dereferenceable(72) %1, ptr noundef nonnull align 8 dereferenceable(32) %2, ptr noundef nonnull align 8 dereferenceable(32) %3) #35
          to label %14 unwind label %15

14:                                               ; preds = %13
  unreachable

15:                                               ; preds = %13
  %16 = landingpad { ptr, i32 }
          cleanup
  br label %18

17:                                               ; preds = %8
  ret void

18:                                               ; preds = %15, %11
  %.pn = phi { ptr, i32 } [ %16, %15 ], [ %12, %11 ]
  call void @_ZN6duckdb5ValueD1Ev(ptr noundef nonnull align 8 dereferenceable(64) %0) #33
  br label %19

19:                                               ; preds = %18, %9
  %.pn.pn = phi { ptr, i32 } [ %.pn, %18 ], [ %10, %9 ]
  resume { ptr, i32 } %.pn.pn
}